target datalayout = "e-m:e-p270:32:32-p271:32:32-p272:64:64-i64:64-i128:128-f80:128-n8:16:32:64-S128"
target triple = "x86_64-unknown-linux-gnu"

%struct.VirtIODevice = type { %struct.DeviceState, ptr, i8, i8, i16, i64, i64, i64, i64, ptr, i16, i32, i32, ptr, %struct.MemoryListener, i16, i8, i8, i8, i8, i8, i8, i8, i8, i8, ptr, ptr, i8, i8, ptr, ptr, %union.anon.1, %struct.EventNotifier, i8 }
%struct.DeviceState = type { %struct.Object, ptr, ptr, i8, i8, i64, ptr, i32, i8, ptr, %struct.NamedGPIOListHead, %struct.NamedClockListHead, %struct.BusStateHead, i32, i32, i32, %struct.ResettableState, ptr, %struct.MemReentrancyGuard }
%struct.Object = type { ptr, ptr, ptr, i32, ptr }
%struct.NamedGPIOListHead = type { ptr }
%struct.NamedClockListHead = type { ptr }
%struct.BusStateHead = type { ptr }
%struct.ResettableState = type { i32, i8, i8 }
%struct.MemReentrancyGuard = type { i8 }
%struct.MemoryListener = type { ptr, ptr, ptr, ptr, ptr, ptr, ptr, ptr, ptr, ptr, ptr, ptr, ptr, ptr, ptr, ptr, ptr, i32, ptr, ptr, %union.anon, %union.anon.0 }
%union.anon = type { %struct.QTailQLink }
%struct.QTailQLink = type { ptr, ptr }
%union.anon.0 = type { %struct.QTailQLink }
%union.anon.1 = type { %struct.QTailQLink }
%struct.EventNotifier = type { i32, i32, i8 }
%struct.VirtQueue = type { %struct.VRing, ptr, i16, i8, i16, i8, i16, i8, i16, i8, i8, i16, i32, i16, ptr, ptr, %struct.EventNotifier, %struct.EventNotifier, i8, %struct.anon }
%struct.VRing = type { i32, i32, i32, i64, i64, i64, ptr }
%struct.anon = type { ptr, ptr }

@.str.42 = private unnamed_addr constant [27 x i8] c"../qemu/hw/virtio/virtio.c\00", align 1
@.str.96 = private unnamed_addr constant [7 x i8] c"device\00", align 1
@.str.97 = private unnamed_addr constant [101 x i8] c"/home/dtcxzyw/WorkSpace/Projects/compilers/llvm-opt-benchmark/bench/qemu/qemu/include/hw/qdev-core.h\00", align 1
@__func__.DEVICE = private unnamed_addr constant [7 x i8] c"DEVICE\00", align 1
@.str.98 = private unnamed_addr constant [11 x i8] c"virtio-bus\00", align 1
@.str.99 = private unnamed_addr constant [109 x i8] c"/home/dtcxzyw/WorkSpace/Projects/compilers/llvm-opt-benchmark/bench/qemu/qemu/include/hw/virtio/virtio-bus.h\00", align 1
@__func__.VIRTIO_BUS = private unnamed_addr constant [11 x i8] c"VIRTIO_BUS\00", align 1
@.str.172 = private unnamed_addr constant [7 x i8] c"r >= 0\00", align 1
@__PRETTY_FUNCTION__.virtio_device_stop_ioeventfd_impl = private unnamed_addr constant [55 x i8] c"void virtio_device_stop_ioeventfd_impl(VirtIODevice *)\00", align 1

; Function Attrs: nounwind sspstrong uwtable
define dso_local i32 @virtio_queue_get_num(ptr noundef %vdev, i32 noundef %n) #0 {
entry:
  %vdev.addr = alloca ptr, align 8
  %n.addr = alloca i32, align 4
  store ptr %vdev, ptr %vdev.addr, align 8
  store i32 %n, ptr %n.addr, align 4
  %0 = load ptr, ptr %vdev.addr, align 8
  %vq = getelementptr inbounds %struct.VirtIODevice, ptr %0, i32 0, i32 13
  %1 = load ptr, ptr %vq, align 8
  %2 = load i32, ptr %n.addr, align 4
  %idxprom = sext i32 %2 to i64
  %arrayidx = getelementptr %struct.VirtQueue, ptr %1, i64 %idxprom
  %vring = getelementptr inbounds %struct.VirtQueue, ptr %arrayidx, i32 0, i32 0
  %num = getelementptr inbounds %struct.VRing, ptr %vring, i32 0, i32 0
  %3 = load i32, ptr %num, align 8
  ret i32 %3
}

; Function Attrs: nounwind sspstrong uwtable
define internal ptr @VIRTIO_BUS(ptr noundef %obj) #0 {
entry:
  %obj.addr = alloca ptr, align 8
  store ptr %obj, ptr %obj.addr, align 8
  %0 = load ptr, ptr %obj.addr, align 8
  %call = call ptr @object_dynamic_cast_assert(ptr noundef %0, ptr noundef @.str.98, ptr noundef @.str.99, i32 noundef 36, ptr noundef @__func__.VIRTIO_BUS)
  ret ptr %call
}

; Function Attrs: nounwind sspstrong uwtable
define internal ptr @DEVICE(ptr noundef %obj) #0 {
entry:
  %obj.addr = alloca ptr, align 8
  store ptr %obj, ptr %obj.addr, align 8
  %0 = load ptr, ptr %obj.addr, align 8
  %call = call ptr @object_dynamic_cast_assert(ptr noundef %0, ptr noundef @.str.96, ptr noundef @.str.97, i32 noundef 77, ptr noundef @__func__.DEVICE)
  ret ptr %call
}

; Function Attrs: nounwind sspstrong uwtable
define internal void @virtio_device_stop_ioeventfd_impl(ptr noundef %vdev) #0 {
entry:
  %vdev.addr = alloca ptr, align 8
  %qbus = alloca ptr, align 8
  %n = alloca i32, align 4
  %r = alloca i32, align 4
  %vq = alloca ptr, align 8
  store ptr %vdev, ptr %vdev.addr, align 8
  %0 = load ptr, ptr %vdev.addr, align 8
  %call = call ptr @DEVICE(ptr noundef %0)
  %call1 = call ptr @qdev_get_parent_bus(ptr noundef %call)
  %call2 = call ptr @VIRTIO_BUS(ptr noundef %call1)
  store ptr %call2, ptr %qbus, align 8
  call void @memory_region_transaction_begin()
  store i32 0, ptr %n, align 4
  br label %for.cond

for.cond:                                         ; preds = %for.inc, %entry
  %1 = load i32, ptr %n, align 4
  %cmp = icmp slt i32 %1, 1024
  br i1 %cmp, label %for.body, label %for.end

for.body:                                         ; preds = %for.cond
  %2 = load ptr, ptr %vdev.addr, align 8
  %vq3 = getelementptr inbounds %struct.VirtIODevice, ptr %2, i32 0, i32 13
  %3 = load ptr, ptr %vq3, align 8
  %4 = load i32, ptr %n, align 4
  %idxprom = sext i32 %4 to i64
  %arrayidx = getelementptr %struct.VirtQueue, ptr %3, i64 %idxprom
  store ptr %arrayidx, ptr %vq, align 8
  %5 = load ptr, ptr %vdev.addr, align 8
  %6 = load i32, ptr %n, align 4
  %call4 = call i32 @virtio_queue_get_num(ptr noundef %5, i32 noundef %6)
  %tobool = icmp ne i32 %call4, 0
  br i1 %tobool, label %if.end, label %if.then

if.then:                                          ; preds = %for.body
  br label %for.inc

if.end:                                           ; preds = %for.body
  %7 = load ptr, ptr %vq, align 8
  %host_notifier = getelementptr inbounds %struct.VirtQueue, ptr %7, i32 0, i32 17
  call void @event_notifier_set_handler(ptr noundef %host_notifier, ptr noundef null)
  %8 = load ptr, ptr %qbus, align 8
  %9 = load i32, ptr %n, align 4
  %call5 = call i32 @virtio_bus_set_host_notifier(ptr noundef %8, i32 noundef %9, i1 noundef zeroext false)
  store i32 %call5, ptr %r, align 4
  %10 = load i32, ptr %r, align 4
  %cmp6 = icmp sge i32 %10, 0
  br i1 %cmp6, label %if.then7, label %if.else

if.then7:                                         ; preds = %if.end
  br label %if.end8

if.else:                                          ; preds = %if.end
  call void @__assert_fail(ptr noundef @.str.172, ptr noundef @.str.42, i32 noundef 3825, ptr noundef @__PRETTY_FUNCTION__.virtio_device_stop_ioeventfd_impl) #13
  unreachable

if.end8:                                          ; preds = %if.then7
  br label %for.inc

for.inc:                                          ; preds = %if.end8, %if.then
  %11 = load i32, ptr %n, align 4
  %inc = add i32 %11, 1
  store i32 %inc, ptr %n, align 4
  br label %for.cond, !llvm.loop !67

for.end:                                          ; preds = %for.cond
  call void @memory_region_transaction_commit()
  store i32 0, ptr %n, align 4
  br label %for.cond9

for.cond9:                                        ; preds = %for.inc16, %for.end
  %12 = load i32, ptr %n, align 4
  %cmp10 = icmp slt i32 %12, 1024
  br i1 %cmp10, label %for.body11, label %for.end18

for.body11:                                       ; preds = %for.cond9
  %13 = load ptr, ptr %vdev.addr, align 8
  %14 = load i32, ptr %n, align 4
  %call12 = call i32 @virtio_queue_get_num(ptr noundef %13, i32 noundef %14)
  %tobool13 = icmp ne i32 %call12, 0
  br i1 %tobool13, label %if.end15, label %if.then14

if.then14:                                        ; preds = %for.body11
  br label %for.inc16

if.end15:                                         ; preds = %for.body11
  %15 = load ptr, ptr %qbus, align 8
  %16 = load i32, ptr %n, align 4
  call void @virtio_bus_cleanup_host_notifier(ptr noundef %15, i32 noundef %16)
  br label %for.inc16

for.inc16:                                        ; preds = %if.end15, %if.then14
  %17 = load i32, ptr %n, align 4
  %inc17 = add i32 %17, 1
  store i32 %inc17, ptr %n, align 4
  br label %for.cond9, !llvm.loop !68

for.end18:                                        ; preds = %for.cond9
  ret void
}