; Function Attrs: nounwind sspstrong uwtable
define internal void @virtio_device_stop_ioeventfd_impl(ptr noundef %vdev) #0 {
entry:
  %call.i = tail call ptr @object_dynamic_cast_assert(ptr noundef %vdev, ptr noundef nonnull @.str.96, ptr noundef nonnull @.str.97, i32 noundef 77, ptr noundef nonnull @__func__.DEVICE) #23
  %call1 = tail call ptr @qdev_get_parent_bus(ptr noundef %call.i) #23
  %call.i13 = tail call ptr @object_dynamic_cast_assert(ptr noundef %call1, ptr noundef nonnull @.str.98, ptr noundef nonnull @.str.99, i32 noundef 36, ptr noundef nonnull @__func__.VIRTIO_BUS) #23
  tail call void @memory_region_transaction_begin() #23
  %vq3 = getelementptr inbounds nuw i8, ptr %vdev, i64 232
  br label %for.body

for.body:                                         ; preds = %entry, %for.inc
  %indvars.iv = phi i64 [ 0, %entry ], [ %indvars.iv.next, %for.inc ]
  %0 = load ptr, ptr %vq3, align 8
  %arrayidx.i = getelementptr %struct.VirtQueue, ptr %0, i64 %indvars.iv
  %1 = load i32, ptr %arrayidx.i, align 8
  %tobool.not = icmp eq i32 %1, 0
  br i1 %tobool.not, label %for.inc, label %if.end

if.end:                                           ; preds = %for.body
  %host_notifier = getelementptr %struct.VirtQueue, ptr %0, i64 %indvars.iv, i32 17
  tail call void @event_notifier_set_handler(ptr noundef %host_notifier, ptr noundef null) #23
  %2 = trunc nuw nsw i64 %indvars.iv to i32
  %call5 = tail call i32 @virtio_bus_set_host_notifier(ptr noundef %call.i13, i32 noundef %2, i1 noundef zeroext false) #23
  %cmp6 = icmp sgt i32 %call5, -1
  br i1 %cmp6, label %for.inc, label %if.else

if.else:                                          ; preds = %if.end
  tail call void @__assert_fail(ptr noundef nonnull @.str.172, ptr noundef nonnull @.str.42, i32 noundef 3825, ptr noundef nonnull @__PRETTY_FUNCTION__.virtio_device_stop_ioeventfd_impl) #24
  unreachable

for.inc:                                          ; preds = %if.end, %for.body
  %indvars.iv.next = add nuw nsw i64 %indvars.iv, 1
  %exitcond.not = icmp eq i64 %indvars.iv.next, 1024
  br i1 %exitcond.not, label %for.end, label %for.body, !llvm.loop !63

for.end:                                          ; preds = %for.inc
  tail call void @memory_region_transaction_commit() #23
  br label %for.body11

for.body11:                                       ; preds = %for.end, %for.inc16
  %indvars.iv20 = phi i64 [ 0, %for.end ], [ %indvars.iv.next21, %for.inc16 ]
  %3 = load ptr, ptr %vq3, align 8
  %arrayidx.i16 = getelementptr %struct.VirtQueue, ptr %3, i64 %indvars.iv20
  %4 = load i32, ptr %arrayidx.i16, align 8
  %tobool13.not = icmp eq i32 %4, 0
  br i1 %tobool13.not, label %for.inc16, label %if.end15

if.end15:                                         ; preds = %for.body11
  %5 = trunc nuw nsw i64 %indvars.iv20 to i32
  tail call void @virtio_bus_cleanup_host_notifier(ptr noundef %call.i13, i32 noundef %5) #23
  br label %for.inc16

for.inc16:                                        ; preds = %for.body11, %if.end15
  %indvars.iv.next21 = add nuw nsw i64 %indvars.iv20, 1
  %exitcond23.not = icmp eq i64 %indvars.iv.next21, 1024
  br i1 %exitcond23.not, label %for.end18, label %for.body11, !llvm.loop !64

for.end18:                                        ; preds = %for.inc16
  ret void
}